target datalayout = "e-m:e-p270:32:32-p271:32:32-p272:64:64-i64:64-i128:128-f80:128-n8:16:32:64-S128"
target triple = "x86_64-unknown-linux-gnu"

%"class.std::basic_string_view" = type { i64, ptr }
%"struct.grpc_op::grpc_op_data::grpc_op_recv_status_on_client" = type { ptr, ptr, ptr, ptr }
%"class.grpc_core::PromiseBasedCall::Completion" = type { i8 }
%class.anon.322 = type { ptr }
%class.anon.323 = type <{ ptr, %"struct.grpc_op::grpc_op_data::grpc_op_recv_status_on_client", %"class.grpc_core::PromiseBasedCall::Completion", [7 x i8] }>
%"class.grpc_core::Party::Participant" = type { ptr, ptr, %"class.std::basic_string_view" }
%"class.grpc_core::Party::ParticipantImpl.622" = type <{ %"class.grpc_core::Party::Participant", %union.anon.623, %class.anon.base.324, i8, [6 x i8] }>
%union.anon.623 = type { %"class.grpc_core::promise_detail::OncePromiseFactory.624" }
%"class.grpc_core::promise_detail::OncePromiseFactory.624" = type { %class.anon.322 }
%class.anon.base.324 = type <{ ptr, %"struct.grpc_op::grpc_op_data::grpc_op_recv_status_on_client", %"class.grpc_core::PromiseBasedCall::Completion" }>

@.str.7 = private unnamed_addr constant [116 x i8] c"generated/home/dtcxzyw/WorkSpace/Projects/compilers/llvm-opt-benchmark/bench/grpc/grpc/src/core/lib/surface/call.cc\00", align 1
@.str.116 = private unnamed_addr constant [21 x i8] c"index_ == kNullIndex\00", align 1
@.str.131 = private unnamed_addr constant [118 x i8] c"generated/home/dtcxzyw/WorkSpace/Projects/compilers/llvm-opt-benchmark/bench/grpc/grpc/src/core/lib/promise/context.h\00", align 1
@.str.132 = private unnamed_addr constant [13 x i8] c"p != nullptr\00", align 1
@_ZN9grpc_core14promise_detail7ContextINS_5ArenaEE8current_E = linkonce_odr thread_local global ptr null, comdat, align 8

; Function Attrs: mustprogress nounwind uwtable
define linkonce_odr void @_ZN9grpc_core16PromiseBasedCall10CompletionD2Ev(ptr noundef nonnull align 1 dereferenceable(1) %this) unnamed_addr #5 comdat align 2 personality ptr @__gxx_personality_v0 {
entry:
  %this.addr = alloca ptr, align 8
  store ptr %this, ptr %this.addr, align 8
  %this1 = load ptr, ptr %this.addr, align 8
  br label %do.body

do.body:                                          ; preds = %entry
  %index_ = getelementptr inbounds %"class.grpc_core::PromiseBasedCall::Completion", ptr %this1, i32 0, i32 0
  %0 = load i8, ptr %index_, align 1
  %conv = zext i8 %0 to i32
  %cmp = icmp eq i32 %conv, 255
  %lnot = xor i1 %cmp, true
  br i1 %lnot, label %if.then, label %if.end

if.then:                                          ; preds = %do.body
  invoke void @gpr_assertion_failed(ptr noundef @.str.7, i32 noundef 2090, ptr noundef @.str.116) #17
          to label %invoke.cont unwind label %terminate.lpad

invoke.cont:                                      ; preds = %if.then
  unreachable

if.end:                                           ; preds = %do.body
  br label %do.cond

do.cond:                                          ; preds = %if.end
  br label %do.end

do.end:                                           ; preds = %do.cond
  ret void

terminate.lpad:                                   ; preds = %if.then
  %1 = landingpad { ptr, i32 }
          catch ptr null
  %2 = extractvalue { ptr, i32 } %1, 0
  call void @__clang_call_terminate(ptr %2) #18
  unreachable
}

; Function Attrs: mustprogress nounwind uwtable
define internal void @"_ZZN9grpc_core22ClientPromiseBasedCall23StartRecvStatusOnClientERKNS_16PromiseBasedCall10CompletionEN7grpc_op12grpc_op_data29grpc_op_recv_status_on_clientERNS_5Party11BulkSpawnerEEN3$_0D2Ev"(ptr noundef nonnull align 8 dereferenceable(41) %this) unnamed_addr #5 align 2 {
entry:
  %this.addr = alloca ptr, align 8
  store ptr %this, ptr %this.addr, align 8
  %this1 = load ptr, ptr %this.addr, align 8
  %0 = getelementptr inbounds %class.anon.323, ptr %this1, i32 0, i32 2
  call void @_ZN9grpc_core16PromiseBasedCall10CompletionD2Ev(ptr noundef nonnull align 1 dereferenceable(1) %0) #3
  ret void
}

; Function Attrs: mustprogress nounwind uwtable
define linkonce_odr void @_ZN9grpc_core8DestructINS_14promise_detail11PromiseLikeIZNS_5LatchISt10unique_ptrI19grpc_metadata_batchNS_5Arena13PooledDeleterEEE4WaitEvEUlvE_vEEEEvPT_(ptr noundef %p) #5 comdat {
entry:
  %p.addr = alloca ptr, align 8
  store ptr %p, ptr %p.addr, align 8
  ret void
}

; Function Attrs: mustprogress nounwind uwtable
define linkonce_odr void @_ZN9grpc_core8DestructINS_14promise_detail18OncePromiseFactoryIvZNS_5LatchISt10unique_ptrI19grpc_metadata_batchNS_5Arena13PooledDeleterEEE4WaitEvEUlvE_EEEEvPT_(ptr noundef %p) #5 comdat {
entry:
  %p.addr = alloca ptr, align 8
  store ptr %p, ptr %p.addr, align 8
  ret void
}

; Function Attrs: mustprogress nounwind uwtable
define internal void @"_ZN9grpc_core5Party15ParticipantImplIZNS_5LatchISt10unique_ptrI19grpc_metadata_batchNS_5Arena13PooledDeleterEEE4WaitEvEUlvE_ZNS_22ClientPromiseBasedCall23StartRecvStatusOnClientERKNS_16PromiseBasedCall10CompletionEN7grpc_op12grpc_op_data29grpc_op_recv_status_on_clientERNS0_11BulkSpawnerEE3$_0ED2Ev"(ptr noundef nonnull align 8 dereferenceable(88) %this) unnamed_addr #5 align 2 {
entry:
  %this.addr = alloca ptr, align 8
  store ptr %this, ptr %this.addr, align 8
  %this1 = load ptr, ptr %this.addr, align 8
  %started_ = getelementptr inbounds %"class.grpc_core::Party::ParticipantImpl.622", ptr %this1, i32 0, i32 3
  %0 = load i8, ptr %started_, align 1
  %tobool = trunc i8 %0 to i1
  br i1 %tobool, label %if.else, label %if.then

if.then:                                          ; preds = %entry
  %1 = getelementptr inbounds %"class.grpc_core::Party::ParticipantImpl.622", ptr %this1, i32 0, i32 1
  call void @_ZN9grpc_core8DestructINS_14promise_detail18OncePromiseFactoryIvZNS_5LatchISt10unique_ptrI19grpc_metadata_batchNS_5Arena13PooledDeleterEEE4WaitEvEUlvE_EEEEvPT_(ptr noundef %1)
  br label %if.end

if.else:                                          ; preds = %entry
  %2 = getelementptr inbounds %"class.grpc_core::Party::ParticipantImpl.622", ptr %this1, i32 0, i32 1
  call void @_ZN9grpc_core8DestructINS_14promise_detail11PromiseLikeIZNS_5LatchISt10unique_ptrI19grpc_metadata_batchNS_5Arena13PooledDeleterEEE4WaitEvEUlvE_vEEEEvPT_(ptr noundef %2)
  br label %if.end

if.end:                                           ; preds = %if.else, %if.then
  %on_complete_ = getelementptr inbounds %"class.grpc_core::Party::ParticipantImpl.622", ptr %this1, i32 0, i32 2
  call void @"_ZZN9grpc_core22ClientPromiseBasedCall23StartRecvStatusOnClientERKNS_16PromiseBasedCall10CompletionEN7grpc_op12grpc_op_data29grpc_op_recv_status_on_clientERNS_5Party11BulkSpawnerEEN3$_0D2Ev"(ptr noundef nonnull align 8 dereferenceable(41) %on_complete_) #3
  call void @_ZN9grpc_core5Party11ParticipantD2Ev(ptr noundef nonnull align 8 dereferenceable(32) %this1) #3
  ret void
}

; Function Attrs: mustprogress nounwind uwtable
define linkonce_odr noundef ptr @_ZN9grpc_core14promise_detail7ContextINS_5ArenaEE3getEv() #5 comdat align 2 {
entry:
  %0 = call align 8 ptr @llvm.threadlocal.address.p0(ptr align 8 @_ZN9grpc_core14promise_detail7ContextINS_5ArenaEE8current_E)
  %1 = load ptr, ptr %0, align 8
  ret ptr %1
}

; Function Attrs: mustprogress nounwind uwtable
define internal void @"_ZN9grpc_core5Arena12DeletePooledINS_5Party15ParticipantImplIZNS_5LatchISt10unique_ptrI19grpc_metadata_batchNS0_13PooledDeleterEEE4WaitEvEUlvE_ZNS_22ClientPromiseBasedCall23StartRecvStatusOnClientERKNS_16PromiseBasedCall10CompletionEN7grpc_op12grpc_op_data29grpc_op_recv_status_on_clientERNS2_11BulkSpawnerEE3$_0EEEEvPT_"(ptr noundef nonnull align 8 dereferenceable(48) %this, ptr noundef %p) #5 align 2 {
entry:
  %this.addr = alloca ptr, align 8
  %p.addr = alloca ptr, align 8
  store ptr %this, ptr %this.addr, align 8
  store ptr %p, ptr %p.addr, align 8
  %0 = load ptr, ptr %p.addr, align 8
  %isnull = icmp eq ptr %0, null
  br i1 %isnull, label %delete.end, label %delete.notnull

delete.notnull:                                   ; preds = %entry
  call void @"_ZN9grpc_core5Party15ParticipantImplIZNS_5LatchISt10unique_ptrI19grpc_metadata_batchNS_5Arena13PooledDeleterEEE4WaitEvEUlvE_ZNS_22ClientPromiseBasedCall23StartRecvStatusOnClientERKNS_16PromiseBasedCall10CompletionEN7grpc_op12grpc_op_data29grpc_op_recv_status_on_clientERNS0_11BulkSpawnerEE3$_0ED2Ev"(ptr noundef nonnull align 8 dereferenceable(88) %0) #3
  call void @_ZdlPv(ptr noundef %0) #20
  br label %delete.end

delete.end:                                       ; preds = %delete.notnull, %entry
  ret void
}

; Function Attrs: mustprogress uwtable
define linkonce_odr noundef ptr @_ZN9grpc_core10GetContextINS_5ArenaEEEPT_v() #4 comdat {
entry:
  %p = alloca ptr, align 8
  %call = call noundef ptr @_ZN9grpc_core14promise_detail7ContextINS_5ArenaEE3getEv()
  store ptr %call, ptr %p, align 8
  br label %do.body

do.body:                                          ; preds = %entry
  %0 = load ptr, ptr %p, align 8
  %cmp = icmp ne ptr %0, null
  %lnot = xor i1 %cmp, true
  br i1 %lnot, label %if.then, label %if.end

if.then:                                          ; preds = %do.body
  call void @gpr_assertion_failed(ptr noundef @.str.131, i32 noundef 80, ptr noundef @.str.132) #17
  unreachable

if.end:                                           ; preds = %do.body
  br label %do.end

do.end:                                           ; preds = %if.end
  %1 = load ptr, ptr %p, align 8
  ret ptr %1
}

; Function Attrs: mustprogress uwtable
define internal void @"_ZN9grpc_core5Party15ParticipantImplIZNS_5LatchISt10unique_ptrI19grpc_metadata_batchNS_5Arena13PooledDeleterEEE4WaitEvEUlvE_ZNS_22ClientPromiseBasedCall23StartRecvStatusOnClientERKNS_16PromiseBasedCall10CompletionEN7grpc_op12grpc_op_data29grpc_op_recv_status_on_clientERNS0_11BulkSpawnerEE3$_0E7DestroyEv"(ptr noundef nonnull align 8 dereferenceable(88) %this) unnamed_addr #4 align 2 {
entry:
  %this.addr = alloca ptr, align 8
  store ptr %this, ptr %this.addr, align 8
  %this1 = load ptr, ptr %this.addr, align 8
  %call = call noundef ptr @_ZN9grpc_core10GetContextINS_5ArenaEEEPT_v()
  call void @"_ZN9grpc_core5Arena12DeletePooledINS_5Party15ParticipantImplIZNS_5LatchISt10unique_ptrI19grpc_metadata_batchNS0_13PooledDeleterEEE4WaitEvEUlvE_ZNS_22ClientPromiseBasedCall23StartRecvStatusOnClientERKNS_16PromiseBasedCall10CompletionEN7grpc_op12grpc_op_data29grpc_op_recv_status_on_clientERNS2_11BulkSpawnerEE3$_0EEEEvPT_"(ptr noundef nonnull align 8 dereferenceable(48) %call, ptr noundef %this1)
  ret void
}